target datalayout = "e-m:e-p270:32:32-p271:32:32-p272:64:64-i64:64-i128:128-f80:128-n8:16:32:64-S128"
target triple = "x86_64-pc-linux-gnu"

%struct.cbs_st = type { ptr, i64 }
%struct.ssl_st = type { i32, i16, i16, ptr, ptr, ptr, ptr, ptr, i32, i32, ptr, ptr, i32, i32, ptr, ptr, ptr, ptr, ptr, ptr, ptr, ptr, i32, i32, [32 x i8], ptr, ptr, ptr, ptr, ptr, ptr, ptr, i64, %struct.crypto_ex_data_st, ptr, i32, i32, i32, i32, i16, ptr, i32, i64, ptr, ptr, ptr, ptr, ptr, ptr, i32, i32, ptr, ptr, i8, i8, i32 }
%struct.crypto_ex_data_st = type { ptr }
%struct.ssl3_state_st = type { [8 x i8], [8 x i8], [32 x i8], [32 x i8], i8, i8, %struct.ssl3_buffer_st, %struct.ssl3_buffer_st, %struct.ssl3_record_st, i8, i32, i32, i32, i32, ptr, ptr, %struct.env_md_ctx_st, %struct.env_md_ctx_st, i8, i32, [2 x i8], i32, i8, i8, ptr, ptr, ptr, %struct.anon, [64 x i8], i8, [64 x i8], i8, i32, i32, ptr, i64, ptr, i64, i8, [64 x i8] }
%struct.ssl3_buffer_st = type { ptr, i16, i16, i16 }
%struct.ssl3_record_st = type { i8, i16, ptr }
%struct.env_md_ctx_st = type { ptr, ptr, ptr, ptr }
%struct.anon = type { [64 x i8], i32, [64 x i8], i32, i64, i32, ptr, i32, i32, %union.anon, %union.anon.0, i8, i32, ptr, ptr, i64, ptr, i8, i8, i8, i8, i32, i8, ptr, i64, i8, ptr, i8, i8, i8, %struct.ssl_ecdh_ctx_st, ptr, i16 }
%union.anon = type { i32 }
%union.anon.0 = type { i16 }
%struct.ssl_ecdh_ctx_st = type { ptr, ptr }

; Function Attrs: nounwind uwtable
define internal i32 @ext_ec_curves_parse_clienthello(ptr noundef %0, ptr noundef %1, ptr noundef %2) #0 {
  %4 = alloca i32, align 4
  %5 = alloca ptr, align 8
  %6 = alloca ptr, align 8
  %7 = alloca ptr, align 8
  %8 = alloca %struct.cbs_st, align 8
  %9 = alloca i32, align 4
  %10 = alloca i64, align 8
  %11 = alloca i64, align 8
  store ptr %0, ptr %5, align 8, !tbaa !69
  store ptr %1, ptr %6, align 8, !tbaa !55
  store ptr %2, ptr %7, align 8, !tbaa !52
  %12 = load ptr, ptr %7, align 8, !tbaa !52
  %13 = icmp eq ptr %12, null
  br i1 %13, label %14, label %15

14:                                               ; preds = %3
  store i32 1, ptr %4, align 4
  br label %93

15:                                               ; preds = %3
  call void @llvm.lifetime.start.p0(i64 16, ptr %8) #8
  %16 = load ptr, ptr %7, align 8, !tbaa !52
  %17 = call i32 @CBS_get_u16_length_prefixed(ptr noundef %16, ptr noundef %8)
  %18 = icmp ne i32 %17, 0
  br i1 %18, label %19, label %30

19:                                               ; preds = %15
  %20 = call i64 @CBS_len(ptr noundef %8)
  %21 = icmp eq i64 %20, 0
  br i1 %21, label %30, label %22

22:                                               ; preds = %19
  %23 = call i64 @CBS_len(ptr noundef %8)
  %24 = and i64 %23, 1
  %25 = icmp ne i64 %24, 0
  br i1 %25, label %30, label %26

26:                                               ; preds = %22
  %27 = load ptr, ptr %7, align 8, !tbaa !52
  %28 = call i64 @CBS_len(ptr noundef %27)
  %29 = icmp ne i64 %28, 0
  br i1 %29, label %30, label %31

30:                                               ; preds = %26, %22, %19, %15
  store i32 0, ptr %4, align 4
  store i32 1, ptr %9, align 4
  br label %92

31:                                               ; preds = %26
  %32 = call i64 @CBS_len(ptr noundef %8)
  %33 = call noalias ptr @malloc(i64 noundef %32) #9
  %34 = load ptr, ptr %5, align 8, !tbaa !69
  %35 = getelementptr inbounds nuw %struct.ssl_st, ptr %34, i32 0, i32 14
  %36 = load ptr, ptr %35, align 8, !tbaa !75
  %37 = getelementptr inbounds nuw %struct.ssl3_state_st, ptr %36, i32 0, i32 27
  %38 = getelementptr inbounds nuw %struct.anon, ptr %37, i32 0, i32 23
  store ptr %33, ptr %38, align 8, !tbaa !76
  %39 = load ptr, ptr %5, align 8, !tbaa !69
  %40 = getelementptr inbounds nuw %struct.ssl_st, ptr %39, i32 0, i32 14
  %41 = load ptr, ptr %40, align 8, !tbaa !75
  %42 = getelementptr inbounds nuw %struct.ssl3_state_st, ptr %41, i32 0, i32 27
  %43 = getelementptr inbounds nuw %struct.anon, ptr %42, i32 0, i32 23
  %44 = load ptr, ptr %43, align 8, !tbaa !76
  %45 = icmp eq ptr %44, null
  br i1 %45, label %46, label %48

46:                                               ; preds = %31
  %47 = load ptr, ptr %6, align 8, !tbaa !55
  store i8 80, ptr %47, align 1, !tbaa !103
  store i32 0, ptr %4, align 4
  store i32 1, ptr %9, align 4
  br label %92

48:                                               ; preds = %31
  call void @llvm.lifetime.start.p0(i64 8, ptr %10) #8
  %49 = call i64 @CBS_len(ptr noundef %8)
  %50 = udiv i64 %49, 2
  store i64 %50, ptr %10, align 8, !tbaa !56
  call void @llvm.lifetime.start.p0(i64 8, ptr %11) #8
  store i64 0, ptr %11, align 8, !tbaa !56
  br label %51

51:                                               ; preds = %68, %48
  %52 = load i64, ptr %11, align 8, !tbaa !56
  %53 = load i64, ptr %10, align 8, !tbaa !56
  %54 = icmp ult i64 %52, %53
  br i1 %54, label %55, label %71

55:                                               ; preds = %51
  %56 = load ptr, ptr %5, align 8, !tbaa !69
  %57 = getelementptr inbounds nuw %struct.ssl_st, ptr %56, i32 0, i32 14
  %58 = load ptr, ptr %57, align 8, !tbaa !75
  %59 = getelementptr inbounds nuw %struct.ssl3_state_st, ptr %58, i32 0, i32 27
  %60 = getelementptr inbounds nuw %struct.anon, ptr %59, i32 0, i32 23
  %61 = load ptr, ptr %60, align 8, !tbaa !76
  %62 = load i64, ptr %11, align 8, !tbaa !56
  %63 = getelementptr inbounds nuw i16, ptr %61, i64 %62
  %64 = call i32 @CBS_get_u16(ptr noundef %8, ptr noundef %63)
  %65 = icmp ne i32 %64, 0
  br i1 %65, label %67, label %66

66:                                               ; preds = %55
  br label %78

67:                                               ; preds = %55
  br label %68

68:                                               ; preds = %67
  %69 = load i64, ptr %11, align 8, !tbaa !56
  %70 = add i64 %69, 1
  store i64 %70, ptr %11, align 8, !tbaa !56
  br label %51, !llvm.loop !223

71:                                               ; preds = %51
  %72 = load i64, ptr %10, align 8, !tbaa !56
  %73 = load ptr, ptr %5, align 8, !tbaa !69
  %74 = getelementptr inbounds nuw %struct.ssl_st, ptr %73, i32 0, i32 14
  %75 = load ptr, ptr %74, align 8, !tbaa !75
  %76 = getelementptr inbounds nuw %struct.ssl3_state_st, ptr %75, i32 0, i32 27
  %77 = getelementptr inbounds nuw %struct.anon, ptr %76, i32 0, i32 24
  store i64 %72, ptr %77, align 8, !tbaa !90
  store i32 1, ptr %4, align 4
  store i32 1, ptr %9, align 4
  br label %91

78:                                               ; preds = %66
  %79 = load ptr, ptr %5, align 8, !tbaa !69
  %80 = getelementptr inbounds nuw %struct.ssl_st, ptr %79, i32 0, i32 14
  %81 = load ptr, ptr %80, align 8, !tbaa !75
  %82 = getelementptr inbounds nuw %struct.ssl3_state_st, ptr %81, i32 0, i32 27
  %83 = getelementptr inbounds nuw %struct.anon, ptr %82, i32 0, i32 23
  %84 = load ptr, ptr %83, align 8, !tbaa !76
  call void @free(ptr noundef %84) #8
  %85 = load ptr, ptr %5, align 8, !tbaa !69
  %86 = getelementptr inbounds nuw %struct.ssl_st, ptr %85, i32 0, i32 14
  %87 = load ptr, ptr %86, align 8, !tbaa !75
  %88 = getelementptr inbounds nuw %struct.ssl3_state_st, ptr %87, i32 0, i32 27
  %89 = getelementptr inbounds nuw %struct.anon, ptr %88, i32 0, i32 23
  store ptr null, ptr %89, align 8, !tbaa !76
  %90 = load ptr, ptr %6, align 8, !tbaa !55
  store i8 80, ptr %90, align 1, !tbaa !103
  store i32 0, ptr %4, align 4
  store i32 1, ptr %9, align 4
  br label %91

91:                                               ; preds = %78, %71
  call void @llvm.lifetime.end.p0(i64 8, ptr %11) #8
  call void @llvm.lifetime.end.p0(i64 8, ptr %10) #8
  br label %92

92:                                               ; preds = %91, %46, %30
  call void @llvm.lifetime.end.p0(i64 16, ptr %8) #8
  br label %93

93:                                               ; preds = %92, %14
  %94 = load i32, ptr %4, align 4
  ret i32 %94
}