; Function Attrs: nounwind uwtable
define internal range(i32 0, 2) i32 @ext_ec_curves_parse_clienthello(ptr noundef readonly captures(none) %0, ptr noundef writeonly captures(none) %1, ptr noundef %2) #0 {
  %4 = alloca %struct.cbs_st, align 8
  %5 = icmp eq ptr %2, null
  br i1 %5, label %43, label %6

6:                                                ; preds = %3
  call void @llvm.lifetime.start.p0(i64 16, ptr nonnull %4) #21
  %7 = call i32 @CBS_get_u16_length_prefixed(ptr noundef nonnull %2, ptr noundef nonnull %4) #21
  %.not = icmp eq i32 %7, 0
  br i1 %.not, label %42, label %8

8:                                                ; preds = %6
  %9 = call i64 @CBS_len(ptr noundef nonnull %4) #21
  %10 = icmp eq i64 %9, 0
  br i1 %10, label %42, label %11

11:                                               ; preds = %8
  %12 = call i64 @CBS_len(ptr noundef nonnull %4) #21
  %13 = and i64 %12, 1
  %.not19 = icmp eq i64 %13, 0
  br i1 %.not19, label %14, label %42

14:                                               ; preds = %11
  %15 = call i64 @CBS_len(ptr noundef nonnull %2) #21
  %.not20 = icmp eq i64 %15, 0
  br i1 %.not20, label %16, label %42

16:                                               ; preds = %14
  %17 = call i64 @CBS_len(ptr noundef nonnull %4) #21
  %18 = call noalias ptr @malloc(i64 noundef %17) #22
  %19 = getelementptr inbounds nuw i8, ptr %0, i64 80
  %20 = load ptr, ptr %19, align 8, !tbaa !58
  %21 = getelementptr inbounds nuw i8, ptr %20, i64 520
  store ptr %18, ptr %21, align 8, !tbaa !73
  %22 = icmp eq ptr %18, null
  br i1 %22, label %23, label %24

23:                                               ; preds = %16
  store i8 80, ptr %1, align 1, !tbaa !90
  br label %42

24:                                               ; preds = %16
  %25 = call i64 @CBS_len(ptr noundef nonnull %4) #21
  %26 = lshr i64 %25, 1
  %.not23 = icmp ult i64 %25, 2
  br i1 %.not23, label %._crit_edge, label %.lr.ph

27:                                               ; preds = %.lr.ph
  %28 = add nuw nsw i64 %.022, 1
  %exitcond.not = icmp eq i64 %28, %26
  br i1 %exitcond.not, label %._crit_edge, label %.lr.ph, !llvm.loop !191

.lr.ph:                                           ; preds = %24, %27
  %.022 = phi i64 [ %28, %27 ], [ 0, %24 ]
  %29 = load ptr, ptr %19, align 8, !tbaa !58
  %30 = getelementptr inbounds nuw i8, ptr %29, i64 520
  %31 = load ptr, ptr %30, align 8, !tbaa !73
  %32 = getelementptr inbounds nuw i16, ptr %31, i64 %.022
  %33 = call i32 @CBS_get_u16(ptr noundef nonnull %4, ptr noundef %32) #21
  %.not21 = icmp eq i32 %33, 0
  br i1 %.not21, label %36, label %27

._crit_edge:                                      ; preds = %27, %24
  %34 = load ptr, ptr %19, align 8, !tbaa !58
  %35 = getelementptr inbounds nuw i8, ptr %34, i64 528
  store i64 %26, ptr %35, align 8, !tbaa !59
  br label %42

36:                                               ; preds = %.lr.ph
  %37 = load ptr, ptr %19, align 8, !tbaa !58
  %38 = getelementptr inbounds nuw i8, ptr %37, i64 520
  %39 = load ptr, ptr %38, align 8, !tbaa !73
  call void @free(ptr noundef %39) #21
  %40 = load ptr, ptr %19, align 8, !tbaa !58
  %41 = getelementptr inbounds nuw i8, ptr %40, i64 520
  store ptr null, ptr %41, align 8, !tbaa !73
  store i8 80, ptr %1, align 1, !tbaa !90
  br label %42

42:                                               ; preds = %._crit_edge, %36, %6, %8, %11, %14, %23
  %.1 = phi i32 [ 0, %23 ], [ 0, %14 ], [ 0, %11 ], [ 0, %8 ], [ 0, %6 ], [ 0, %36 ], [ 1, %._crit_edge ]
  call void @llvm.lifetime.end.p0(i64 16, ptr nonnull %4) #21
  br label %43

43:                                               ; preds = %3, %42
  %.016 = phi i32 [ %.1, %42 ], [ 1, %3 ]
  ret i32 %.016
}